; Function Attrs: cold nounwind optsize uwtable
define internal i32 @ac3_fixed_encode_init(ptr noundef %0) #0 {
  %2 = getelementptr inbounds nuw i8, ptr %0, i64 32
  %3 = load ptr, ptr %2, align 8, !tbaa !4
  %4 = getelementptr inbounds nuw i8, ptr %3, i64 4936
  store i32 1, ptr %4, align 8, !tbaa !27
  %5 = getelementptr inbounds nuw i8, ptr %3, i64 5856
  store ptr @encode_frame, ptr %5, align 16, !tbaa !37
  %6 = tail call fastcc i32 @ac3_fixed_mdct_init(ptr noundef %0, ptr noundef %3) #8
  %7 = icmp slt i32 %6, 0
  br i1 %7, label %10, label %8

8:                                                ; preds = %1
  %9 = tail call i32 @ff_ac3_encode_init(ptr noundef nonnull %0) #9
  br label %10

10:                                               ; preds = %1, %8
  %.0 = phi i32 [ %9, %8 ], [ %6, %1 ]
  ret i32 %.0
}